target datalayout = "e-m:e-p270:32:32-p271:32:32-p272:64:64-i64:64-i128:128-f80:128-n8:16:32:64-S128"
target triple = "x86_64-unknown-linux-gnu"

%struct.QTailQLink = type { ptr, ptr }
%struct.BdrvCheckResult = type { i32, i32, i32, i32, i32, i64, %struct.BlockFragInfo }
%struct.BlockFragInfo = type { i64, i64, i64, i64 }
%struct.BlockDriverState = type { i32, i8, i8, i8, i8, i8, ptr, ptr, ptr, %struct.anon.0, i8, [4096 x i8], [4096 x i8], [4096 x i8], [16 x i8], ptr, [4096 x i8], %struct.BlockLimits, i32, i32, i32, i32, [32 x i8], %union.anon.1, %union.anon.2, %union.anon.3, i32, [16 x %struct.anon.4], ptr, %struct.anon.5, ptr, ptr, %struct.anon.6, ptr, ptr, i32, ptr, i64, i64, %struct.QemuMutex, %struct.anon.7, %struct.Stat64, i32, i32, i32, i32, i32, i32, %struct.QemuMutex, %struct.anon.8, %struct.CoQueue, i8, i32, i8, %struct.CoMutex, ptr, ptr }
%struct.anon.0 = type { ptr }
%struct.BlockLimits = type { i32, i64, i32, i64, i32, i32, i32, i64, i32, i64, i64, i32, i8, i32, i32, i32, i32, i32, i32, i32 }
%union.anon.1 = type { %struct.QTailQLink }
%union.anon.2 = type { %struct.QTailQLink }
%union.anon.3 = type { %struct.QTailQLink }
%struct.anon.4 = type { ptr }
%struct.anon.5 = type { ptr }
%struct.anon.6 = type { ptr }
%struct.anon.7 = type { ptr }
%struct.Stat64 = type { i64 }
%struct.QemuMutex = type { %union.pthread_mutex_t, i8 }
%union.pthread_mutex_t = type { %struct.__pthread_mutex_s }
%struct.__pthread_mutex_s = type { i32, i32, i32, i32, i32, i16, i16, %struct.__pthread_internal_list }
%struct.__pthread_internal_list = type { ptr, ptr }
%struct.anon.8 = type { ptr }
%struct.CoQueue = type { %struct.anon.9 }
%struct.anon.9 = type { ptr, ptr }
%struct.CoMutex = type { i32, ptr, %struct.anon.10, %struct.anon.10, i32, i32, ptr }
%struct.anon.10 = type { ptr }
%struct.BdrvChild = type { ptr, ptr, ptr, i32, ptr, i64, i64, i8, i8, %struct.anon.11, %struct.anon.12 }
%struct.anon.11 = type { ptr, ptr }
%struct.anon.12 = type { ptr, ptr }
%struct.BDRVParallelsState = type { %struct.CoMutex, ptr, i32, i8, ptr, i32, ptr, i64, ptr, i32, i64, i64, i64, i32, i32, i32, i32, ptr }

@stderr = external global ptr, align 8
@.str.40 = private unnamed_addr constant [10 x i8] c"Repairing\00", align 1
@.str.41 = private unnamed_addr constant [6 x i8] c"ERROR\00", align 1
@.str.43 = private unnamed_addr constant [32 x i8] c"%s cluster %u is outside image\0A\00", align 1

; Function Attrs: nounwind sspstrong uwtable
define internal i32 @bat_entry_off(i32 noundef %idx) #0 {
entry:
  %idx.addr = alloca i32, align 4
  store i32 %idx, ptr %idx.addr, align 4
  %0 = load i32, ptr %idx.addr, align 4
  %conv = zext i32 %0 to i64
  %mul = mul i64 4, %conv
  %add = add i64 64, %mul
  %conv1 = trunc i64 %add to i32
  ret i32 %conv1
}

; Function Attrs: nounwind sspstrong uwtable
define internal i32 @cpu_to_le32(i32 noundef %v) #0 {
entry:
  %v.addr = alloca i32, align 4
  store i32 %v, ptr %v.addr, align 4
  %0 = load i32, ptr %v.addr, align 4
  ret i32 %0
}

; Function Attrs: nounwind sspstrong uwtable
define internal i32 @le32_to_cpu(i32 noundef %v) #0 {
entry:
  %v.addr = alloca i32, align 4
  store i32 %v, ptr %v.addr, align 4
  %0 = load i32, ptr %v.addr, align 4
  ret i32 %0
}

; Function Attrs: nounwind sspstrong uwtable
define internal void @parallels_set_bat_entry(ptr noundef %s, i32 noundef %index, i32 noundef %offset) #0 {
entry:
  %s.addr = alloca ptr, align 8
  %index.addr = alloca i32, align 4
  %offset.addr = alloca i32, align 4
  store ptr %s, ptr %s.addr, align 8
  store i32 %index, ptr %index.addr, align 4
  store i32 %offset, ptr %offset.addr, align 4
  %0 = load i32, ptr %offset.addr, align 4
  %call = call i32 @cpu_to_le32(i32 noundef %0)
  %1 = load ptr, ptr %s.addr, align 8
  %bat_bitmap = getelementptr inbounds %struct.BDRVParallelsState, ptr %1, i32 0, i32 8
  %2 = load ptr, ptr %bat_bitmap, align 8
  %3 = load i32, ptr %index.addr, align 4
  %idxprom = zext i32 %3 to i64
  %arrayidx = getelementptr i32, ptr %2, i64 %idxprom
  store i32 %call, ptr %arrayidx, align 4
  %4 = load ptr, ptr %s.addr, align 8
  %bat_dirty_bmap = getelementptr inbounds %struct.BDRVParallelsState, ptr %4, i32 0, i32 4
  %5 = load ptr, ptr %bat_dirty_bmap, align 8
  %6 = load i32, ptr %index.addr, align 4
  %call1 = call i32 @bat_entry_off(i32 noundef %6)
  %7 = load ptr, ptr %s.addr, align 8
  %bat_dirty_block = getelementptr inbounds %struct.BDRVParallelsState, ptr %7, i32 0, i32 5
  %8 = load i32, ptr %bat_dirty_block, align 8
  %div = udiv i32 %call1, %8
  %conv = zext i32 %div to i64
  call void @bitmap_set(ptr noundef %5, i64 noundef %conv, i64 noundef 1)
  ret void
}

; Function Attrs: nounwind sspstrong uwtable
define internal i64 @bat2sect(ptr noundef %s, i32 noundef %idx) #0 {
entry:
  %s.addr = alloca ptr, align 8
  %idx.addr = alloca i32, align 4
  store ptr %s, ptr %s.addr, align 8
  store i32 %idx, ptr %idx.addr, align 4
  %0 = load ptr, ptr %s.addr, align 8
  %bat_bitmap = getelementptr inbounds %struct.BDRVParallelsState, ptr %0, i32 0, i32 8
  %1 = load ptr, ptr %bat_bitmap, align 8
  %2 = load i32, ptr %idx.addr, align 4
  %idxprom = zext i32 %2 to i64
  %arrayidx = getelementptr i32, ptr %1, i64 %idxprom
  %3 = load i32, ptr %arrayidx, align 4
  %call = call i32 @le32_to_cpu(i32 noundef %3)
  %conv = zext i32 %call to i64
  %4 = load ptr, ptr %s.addr, align 8
  %off_multiplier = getelementptr inbounds %struct.BDRVParallelsState, ptr %4, i32 0, i32 16
  %5 = load i32, ptr %off_multiplier, align 4
  %conv1 = zext i32 %5 to i64
  %mul = mul i64 %conv, %conv1
  ret i64 %mul
}

; Function Attrs: nounwind sspstrong uwtable
define internal i32 @parallels_check_outside_image(ptr noundef %bs, ptr noundef %res, i32 noundef %fix) #0 {
entry:
  %retval = alloca i32, align 4
  %bs.addr = alloca ptr, align 8
  %res.addr = alloca ptr, align 8
  %fix.addr = alloca i32, align 4
  %s = alloca ptr, align 8
  %i = alloca i32, align 4
  %off = alloca i64, align 8
  %high_off = alloca i64, align 8
  %size = alloca i64, align 8
  store ptr %bs, ptr %bs.addr, align 8
  store ptr %res, ptr %res.addr, align 8
  store i32 %fix, ptr %fix.addr, align 4
  %0 = load ptr, ptr %bs.addr, align 8
  %opaque = getelementptr inbounds %struct.BlockDriverState, ptr %0, i32 0, i32 7
  %1 = load ptr, ptr %opaque, align 8
  store ptr %1, ptr %s, align 8
  %2 = load ptr, ptr %bs.addr, align 8
  %file = getelementptr inbounds %struct.BlockDriverState, ptr %2, i32 0, i32 31
  %3 = load ptr, ptr %file, align 8
  %bs1 = getelementptr inbounds %struct.BdrvChild, ptr %3, i32 0, i32 0
  %4 = load ptr, ptr %bs1, align 8
  %call = call i64 @bdrv_co_getlength(ptr noundef %4)
  store i64 %call, ptr %size, align 8
  %5 = load i64, ptr %size, align 8
  %cmp = icmp slt i64 %5, 0
  br i1 %cmp, label %if.then, label %if.end

if.then:                                          ; preds = %entry
  %6 = load ptr, ptr %res.addr, align 8
  %check_errors = getelementptr inbounds %struct.BdrvCheckResult, ptr %6, i32 0, i32 2
  %7 = load i32, ptr %check_errors, align 8
  %inc = add i32 %7, 1
  store i32 %inc, ptr %check_errors, align 8
  %8 = load i64, ptr %size, align 8
  %conv = trunc i64 %8 to i32
  store i32 %conv, ptr %retval, align 4
  br label %return

if.end:                                           ; preds = %entry
  store i64 0, ptr %high_off, align 8
  store i32 0, ptr %i, align 4
  br label %for.cond

for.cond:                                         ; preds = %for.inc, %if.end
  %9 = load i32, ptr %i, align 4
  %10 = load ptr, ptr %s, align 8
  %bat_size = getelementptr inbounds %struct.BDRVParallelsState, ptr %10, i32 0, i32 9
  %11 = load i32, ptr %bat_size, align 8
  %cmp2 = icmp ult i32 %9, %11
  br i1 %cmp2, label %for.body, label %for.end

for.body:                                         ; preds = %for.cond
  %12 = load ptr, ptr %s, align 8
  %13 = load i32, ptr %i, align 4
  %call4 = call i64 @bat2sect(ptr noundef %12, i32 noundef %13)
  %shl = shl i64 %call4, 9
  store i64 %shl, ptr %off, align 8
  %14 = load i64, ptr %off, align 8
  %15 = load ptr, ptr %s, align 8
  %cluster_size = getelementptr inbounds %struct.BDRVParallelsState, ptr %15, i32 0, i32 15
  %16 = load i32, ptr %cluster_size, align 8
  %conv5 = zext i32 %16 to i64
  %add = add i64 %14, %conv5
  %17 = load i64, ptr %size, align 8
  %cmp6 = icmp sgt i64 %add, %17
  br i1 %cmp6, label %if.then8, label %if.end16

if.then8:                                         ; preds = %for.body
  %18 = load ptr, ptr @stderr, align 8
  %19 = load i32, ptr %fix.addr, align 4
  %and = and i32 %19, 2
  %tobool = icmp ne i32 %and, 0
  %cond = select i1 %tobool, ptr @.str.40, ptr @.str.41
  %20 = load i32, ptr %i, align 4
  %call9 = call i32 (ptr, ptr, ...) @fprintf(ptr noundef %18, ptr noundef @.str.43, ptr noundef %cond, i32 noundef %20)
  %21 = load ptr, ptr %res.addr, align 8
  %corruptions = getelementptr inbounds %struct.BdrvCheckResult, ptr %21, i32 0, i32 0
  %22 = load i32, ptr %corruptions, align 8
  %inc10 = add i32 %22, 1
  store i32 %inc10, ptr %corruptions, align 8
  %23 = load i32, ptr %fix.addr, align 4
  %and11 = and i32 %23, 2
  %tobool12 = icmp ne i32 %and11, 0
  br i1 %tobool12, label %if.then13, label %if.end15

if.then13:                                        ; preds = %if.then8
  %24 = load ptr, ptr %s, align 8
  %25 = load i32, ptr %i, align 4
  call void @parallels_set_bat_entry(ptr noundef %24, i32 noundef %25, i32 noundef 0)
  %26 = load ptr, ptr %res.addr, align 8
  %corruptions_fixed = getelementptr inbounds %struct.BdrvCheckResult, ptr %26, i32 0, i32 3
  %27 = load i32, ptr %corruptions_fixed, align 4
  %inc14 = add i32 %27, 1
  store i32 %inc14, ptr %corruptions_fixed, align 4
  br label %if.end15

if.end15:                                         ; preds = %if.then13, %if.then8
  br label %for.inc

if.end16:                                         ; preds = %for.body
  %28 = load i64, ptr %high_off, align 8
  %29 = load i64, ptr %off, align 8
  %cmp17 = icmp slt i64 %28, %29
  br i1 %cmp17, label %if.then19, label %if.end20

if.then19:                                        ; preds = %if.end16
  %30 = load i64, ptr %off, align 8
  store i64 %30, ptr %high_off, align 8
  br label %if.end20

if.end20:                                         ; preds = %if.then19, %if.end16
  br label %for.inc

for.inc:                                          ; preds = %if.end20, %if.end15
  %31 = load i32, ptr %i, align 4
  %inc21 = add i32 %31, 1
  store i32 %inc21, ptr %i, align 4
  br label %for.cond, !llvm.loop !16

for.end:                                          ; preds = %for.cond
  %32 = load i64, ptr %high_off, align 8
  %cmp22 = icmp eq i64 %32, 0
  br i1 %cmp22, label %if.then24, label %if.else

if.then24:                                        ; preds = %for.end
  %33 = load ptr, ptr %s, align 8
  %data_end = getelementptr inbounds %struct.BDRVParallelsState, ptr %33, i32 0, i32 11
  %34 = load i64, ptr %data_end, align 8
  %shl25 = shl i64 %34, 9
  %35 = load ptr, ptr %res.addr, align 8
  %image_end_offset = getelementptr inbounds %struct.BdrvCheckResult, ptr %35, i32 0, i32 5
  store i64 %shl25, ptr %image_end_offset, align 8
  br label %if.end32

if.else:                                          ; preds = %for.end
  %36 = load i64, ptr %high_off, align 8
  %37 = load ptr, ptr %s, align 8
  %cluster_size26 = getelementptr inbounds %struct.BDRVParallelsState, ptr %37, i32 0, i32 15
  %38 = load i32, ptr %cluster_size26, align 8
  %conv27 = zext i32 %38 to i64
  %add28 = add i64 %36, %conv27
  %39 = load ptr, ptr %res.addr, align 8
  %image_end_offset29 = getelementptr inbounds %struct.BdrvCheckResult, ptr %39, i32 0, i32 5
  store i64 %add28, ptr %image_end_offset29, align 8
  %40 = load ptr, ptr %res.addr, align 8
  %image_end_offset30 = getelementptr inbounds %struct.BdrvCheckResult, ptr %40, i32 0, i32 5
  %41 = load i64, ptr %image_end_offset30, align 8
  %shr = ashr i64 %41, 9
  %42 = load ptr, ptr %s, align 8
  %data_end31 = getelementptr inbounds %struct.BDRVParallelsState, ptr %42, i32 0, i32 11
  store i64 %shr, ptr %data_end31, align 8
  br label %if.end32

if.end32:                                         ; preds = %if.else, %if.then24
  store i32 0, ptr %retval, align 4
  br label %return

return:                                           ; preds = %if.end32, %if.then
  %43 = load i32, ptr %retval, align 4
  ret i32 %43
}