; Function Attrs: nounwind sspstrong uwtable
define internal i32 @parallels_check_outside_image(ptr noundef readonly captures(none) %bs, ptr noundef captures(none) %res, i32 noundef %fix) #0 {
entry:
  %opaque = getelementptr inbounds nuw i8, ptr %bs, i64 24
  %0 = load ptr, ptr %opaque, align 8
  %file = getelementptr inbounds nuw i8, ptr %bs, i64 16840
  %1 = load ptr, ptr %file, align 8
  %2 = load ptr, ptr %1, align 8
  %call = tail call i64 @bdrv_co_getlength(ptr noundef %2) #16
  %cmp = icmp slt i64 %call, 0
  br i1 %cmp, label %if.then, label %for.cond.preheader

for.cond.preheader:                               ; preds = %entry
  %bat_size = getelementptr inbounds nuw i8, ptr %0, i64 104
  %3 = load i32, ptr %bat_size, align 8
  %cmp228.not = icmp eq i32 %3, 0
  br i1 %cmp228.not, label %if.then24, label %for.body.lr.ph

for.body.lr.ph:                                   ; preds = %for.cond.preheader
  %4 = getelementptr i8, ptr %0, i64 96
  %5 = getelementptr i8, ptr %0, i64 148
  %cluster_size = getelementptr inbounds nuw i8, ptr %0, i64 144
  %and = and i32 %fix, 2
  %tobool.not = icmp eq i32 %and, 0
  %cond = select i1 %tobool.not, ptr @.str.41, ptr @.str.40
  %bat_dirty_bmap.i = getelementptr inbounds nuw i8, ptr %0, i64 64
  %bat_dirty_block.i = getelementptr inbounds nuw i8, ptr %0, i64 72
  %corruptions_fixed = getelementptr inbounds nuw i8, ptr %res, i64 12
  br i1 %tobool.not, label %for.body.us, label %for.body

for.body.us:                                      ; preds = %for.body.lr.ph, %for.inc.us
  %6 = phi i32 [ %12, %for.inc.us ], [ %3, %for.body.lr.ph ]
  %indvars.iv33 = phi i64 [ %indvars.iv.next34, %for.inc.us ], [ 0, %for.body.lr.ph ]
  %high_off.030.us = phi i64 [ %high_off.1.us, %for.inc.us ], [ 0, %for.body.lr.ph ]
  %.val.us = load ptr, ptr %4, align 8
  %.val24.us = load i32, ptr %5, align 4
  %arrayidx.i.us = getelementptr i32, ptr %.val.us, i64 %indvars.iv33
  %7 = load i32, ptr %arrayidx.i.us, align 4
  %conv.i.us = zext i32 %7 to i64
  %conv1.i.us = zext i32 %.val24.us to i64
  %mul.i.us = shl nuw nsw i64 %conv1.i.us, 9
  %shl.us = mul i64 %mul.i.us, %conv.i.us
  %8 = load i32, ptr %cluster_size, align 8
  %conv5.us = zext i32 %8 to i64
  %add.us = add i64 %shl.us, %conv5.us
  %cmp6.us = icmp sgt i64 %add.us, %call
  br i1 %cmp6.us, label %if.then8.us, label %if.end16.us

if.end16.us:                                      ; preds = %for.body.us
  %spec.select.us = tail call i64 @llvm.smax.i64(i64 %high_off.030.us, i64 %shl.us)
  br label %for.inc.us

if.then8.us:                                      ; preds = %for.body.us
  %9 = load ptr, ptr @stderr, align 8
  %10 = trunc nuw i64 %indvars.iv33 to i32
  %call9.us = tail call i32 (ptr, ptr, ...) @fprintf(ptr noundef %9, ptr noundef nonnull @.str.43, ptr noundef nonnull %cond, i32 noundef %10) #19
  %11 = load i32, ptr %res, align 8
  %inc10.us = add i32 %11, 1
  store i32 %inc10.us, ptr %res, align 8
  %.pre36 = load i32, ptr %bat_size, align 8
  br label %for.inc.us

for.inc.us:                                       ; preds = %if.then8.us, %if.end16.us
  %12 = phi i32 [ %.pre36, %if.then8.us ], [ %6, %if.end16.us ]
  %high_off.1.us = phi i64 [ %high_off.030.us, %if.then8.us ], [ %spec.select.us, %if.end16.us ]
  %indvars.iv.next34 = add nuw nsw i64 %indvars.iv33, 1
  %13 = zext i32 %12 to i64
  %cmp2.us = icmp samesign ult i64 %indvars.iv.next34, %13
  br i1 %cmp2.us, label %for.body.us, label %for.end, !llvm.loop !16

if.then:                                          ; preds = %entry
  %check_errors = getelementptr inbounds nuw i8, ptr %res, i64 8
  %14 = load i32, ptr %check_errors, align 8
  %inc = add i32 %14, 1
  store i32 %inc, ptr %check_errors, align 8
  %conv = trunc i64 %call to i32
  br label %return

for.body:                                         ; preds = %for.body.lr.ph, %for.inc
  %15 = phi i32 [ %25, %for.inc ], [ %3, %for.body.lr.ph ]
  %indvars.iv = phi i64 [ %indvars.iv.next, %for.inc ], [ 0, %for.body.lr.ph ]
  %high_off.030 = phi i64 [ %high_off.1, %for.inc ], [ 0, %for.body.lr.ph ]
  %.val = load ptr, ptr %4, align 8
  %.val24 = load i32, ptr %5, align 4
  %arrayidx.i = getelementptr i32, ptr %.val, i64 %indvars.iv
  %16 = load i32, ptr %arrayidx.i, align 4
  %conv.i = zext i32 %16 to i64
  %conv1.i = zext i32 %.val24 to i64
  %mul.i = shl nuw nsw i64 %conv1.i, 9
  %shl = mul i64 %mul.i, %conv.i
  %17 = load i32, ptr %cluster_size, align 8
  %conv5 = zext i32 %17 to i64
  %add = add i64 %shl, %conv5
  %cmp6 = icmp sgt i64 %add, %call
  br i1 %cmp6, label %if.then8, label %if.end16

if.then8:                                         ; preds = %for.body
  %18 = load ptr, ptr @stderr, align 8
  %19 = trunc nuw i64 %indvars.iv to i32
  %call9 = tail call i32 (ptr, ptr, ...) @fprintf(ptr noundef %18, ptr noundef nonnull @.str.43, ptr noundef nonnull %cond, i32 noundef %19) #19
  %20 = load i32, ptr %res, align 8
  %inc10 = add i32 %20, 1
  store i32 %inc10, ptr %res, align 8
  %21 = load ptr, ptr %4, align 8
  %arrayidx.i26 = getelementptr i32, ptr %21, i64 %indvars.iv
  store i32 0, ptr %arrayidx.i26, align 4
  %22 = load ptr, ptr %bat_dirty_bmap.i, align 8
  %mul.i.i = shl i32 %19, 2
  %add.i.i = add i32 %mul.i.i, 64
  %23 = load i32, ptr %bat_dirty_block.i, align 8
  %div.i = udiv i32 %add.i.i, %23
  %conv.i27 = zext i32 %div.i to i64
  tail call void @bitmap_set(ptr noundef %22, i64 noundef %conv.i27, i64 noundef 1) #16
  %24 = load i32, ptr %corruptions_fixed, align 4
  %inc14 = add i32 %24, 1
  store i32 %inc14, ptr %corruptions_fixed, align 4
  %.pre = load i32, ptr %bat_size, align 8
  br label %for.inc

if.end16:                                         ; preds = %for.body
  %spec.select = tail call i64 @llvm.smax.i64(i64 %high_off.030, i64 %shl)
  br label %for.inc

for.inc:                                          ; preds = %if.end16, %if.then8
  %25 = phi i32 [ %.pre, %if.then8 ], [ %15, %if.end16 ]
  %high_off.1 = phi i64 [ %high_off.030, %if.then8 ], [ %spec.select, %if.end16 ]
  %indvars.iv.next = add nuw nsw i64 %indvars.iv, 1
  %26 = zext i32 %25 to i64
  %cmp2 = icmp samesign ult i64 %indvars.iv.next, %26
  br i1 %cmp2, label %for.body, label %for.end, !llvm.loop !16

for.end:                                          ; preds = %for.inc, %for.inc.us
  %high_off.0.lcssa = phi i64 [ %high_off.1.us, %for.inc.us ], [ %high_off.1, %for.inc ]
  %cmp22 = icmp eq i64 %high_off.0.lcssa, 0
  br i1 %cmp22, label %if.then24, label %if.else

if.then24:                                        ; preds = %for.cond.preheader, %for.end
  %data_end = getelementptr inbounds nuw i8, ptr %0, i64 120
  %27 = load i64, ptr %data_end, align 8
  %shl25 = shl i64 %27, 9
  %image_end_offset = getelementptr inbounds nuw i8, ptr %res, i64 24
  store i64 %shl25, ptr %image_end_offset, align 8
  br label %return

if.else:                                          ; preds = %for.end
  %cluster_size26 = getelementptr inbounds nuw i8, ptr %0, i64 144
  %28 = load i32, ptr %cluster_size26, align 8
  %conv27 = zext i32 %28 to i64
  %add28 = add nuw i64 %high_off.0.lcssa, %conv27
  %image_end_offset29 = getelementptr inbounds nuw i8, ptr %res, i64 24
  store i64 %add28, ptr %image_end_offset29, align 8
  %shr = ashr i64 %add28, 9
  %data_end31 = getelementptr inbounds nuw i8, ptr %0, i64 120
  store i64 %shr, ptr %data_end31, align 8
  br label %return

return:                                           ; preds = %if.then24, %if.else, %if.then
  %retval.0 = phi i32 [ %conv, %if.then ], [ 0, %if.else ], [ 0, %if.then24 ]
  ret i32 %retval.0
}